Certificate:
    Data:
        Version: 3 (0x2)
        Serial Number:
            e6:4e:9b:bd:f7:e5:d1:ec
    Signature Algorithm: sha256WithRSAEncryption
        Issuer: C=VN, ST=Socialist Republic of Vietnam, O=Toshiba Software Development Vietnam Co., Ltd, OU=TZCS, CN=romlinux
        Validity
            Not Before: Mar 15 09:13:33 2018 GMT
            Not After : Mar 12 09:13:33 2028 GMT
        Subject: C=VN, ST=Socialist Republic of Vietnam, O=Toshiba Software Development Vietnam Co., Ltd, OU=TZCS, CN=romlinux
        Subject Public Key Info:
            Public Key Algorithm: rsaEncryption
                Public-Key: (2048 bit)
                Modulus:
                    00:c9:03:db:cf:0d:64:49:28:75:ac:33:44:cd:c2:
                    83:f8:ed:40:66:9f:44:db:52:bc:d9:5f:ad:4e:32:
                    37:42:78:bb:e1:21:9c:15:b2:de:6b:13:01:b7:6d:
                    a6:fa:19:2a:a0:c0:18:30:8f:7d:77:fc:b4:23:88:
                    b7:f6:7f:6b:07:41:7c:f0:32:9f:ce:84:2b:58:5a:
                    50:ce:07:26:52:a1:e1:f0:df:44:f1:30:85:bf:14:
                    b5:9f:d9:97:b7:2e:78:1f:6c:1e:fb:ef:33:94:a6:
                    de:b0:80:80:87:1a:c8:a1:78:29:2f:3f:cb:b5:13:
                    0e:d6:2c:17:52:de:88:eb:ca:e0:5f:ae:92:b8:d6:
                    d3:70:bb:08:38:2c:6c:b3:b4:2d:e5:19:c6:45:d8:
                    88:0d:82:4a:af:a1:11:f7:9f:33:d2:d4:2c:19:d6:
                    de:12:2f:5b:24:be:07:57:30:ee:d3:0b:f7:5e:68:
                    25:88:c2:b0:1e:4e:08:bd:2b:b3:80:2f:48:ed:41:
                    39:3d:1d:c7:bc:3d:1c:22:a5:40:93:9c:3a:d6:8b:
                    da:03:8c:66:87:8e:19:6f:0a:f2:77:1c:85:c7:af:
                    c6:dc:45:90:f4:57:55:66:cc:cf:ea:c5:f1:a6:75:
                    4f:e6:da:ba:b8:e8:1b:e2:fb:db:a5:80:28:1c:98:
                    bb:d1
                Exponent: 65537 (0x10001)
        X509v3 extensions:
            X509v3 Subject Key Identifier: 
                21:5B:A4:35:4E:6D:35:56:33:EF:B3:C7:9F:A0:B3:3D:2E:80:8D:79
            X509v3 Authority Key Identifier: 
                keyid:21:5B:A4:35:4E:6D:35:56:33:EF:B3:C7:9F:A0:B3:3D:2E:80:8D:79

            X509v3 Basic Constraints: 
                CA:TRUE
    Signature Algorithm: sha256WithRSAEncryption
         9b:43:6b:50:ed:b3:d1:8b:0a:53:0f:5a:f8:33:d1:63:1a:88:
         a4:57:9d:a8:03:1b:62:05:f1:c1:d6:43:c1:a3:e7:ce:1c:3c:
         98:ee:ea:2c:90:49:f5:42:4c:02:94:48:42:2c:a6:6f:ce:f5:
         7b:64:09:88:c1:53:44:e8:5b:04:d0:ef:62:2b:0b:98:d7:86:
         62:04:d4:63:12:61:6c:e3:7e:3f:e7:f0:69:b5:27:da:9e:84:
         d9:09:a8:e8:34:f9:29:d3:cf:5a:62:d4:60:ad:c1:3f:75:d2:
         20:56:d2:5a:09:84:99:c3:f0:9d:42:b1:38:c5:bb:b7:48:41:
         7d:b2:36:12:4b:d7:14:e4:0c:31:ff:a0:24:d8:e8:4f:f7:30:
         7a:69:55:47:e6:b2:46:87:2f:af:11:de:23:5f:b2:54:3a:51:
         15:c1:27:b1:86:20:51:22:58:58:d0:12:f6:b9:13:ab:2a:bb:
         62:87:8c:db:bb:2b:0d:02:74:09:6c:3e:74:1c:f2:d2:21:61:
         b9:0f:3a:2e:9e:f3:8b:e8:ca:25:da:b0:a0:16:94:53:24:d3:
         b7:d4:29:27:ae:b4:9e:cb:a1:2b:99:cb:9f:52:6e:42:38:f5:
         84:06:89:68:8b:46:29:8f:b7:c6:80:f6:2f:59:52:3f:65:0e:
         9f:95:d0:45
-----BEGIN CERTIFICATE-----
MIID8zCCAtugAwIBAgIJAOZOm7335dHsMA0GCSqGSIb3DQEBCwUAMIGPMQswCQYD
VQQGEwJWTjEmMCQGA1UECAwdU29jaWFsaXN0IFJlcHVibGljIG9mIFZpZXRuYW0x
NjA0BgNVBAoMLVRvc2hpYmEgU29mdHdhcmUgRGV2ZWxvcG1lbnQgVmlldG5hbSBD
by4sIEx0ZDENMAsGA1UECwwEVFpDUzERMA8GA1UEAwwIcm9tbGludXgwHhcNMTgw
MzE1MDkxMzMzWhcNMjgwMzEyMDkxMzMzWjCBjzELMAkGA1UEBhMCVk4xJjAkBgNV
BAgMHVNvY2lhbGlzdCBSZXB1YmxpYyBvZiBWaWV0bmFtMTYwNAYDVQQKDC1Ub3No
aWJhIFNvZnR3YXJlIERldmVsb3BtZW50IFZpZXRuYW0gQ28uLCBMdGQxDTALBgNV
BAsMBFRaQ1MxETAPBgNVBAMMCHJvbWxpbnV4MIIBIjANBgkqhkiG9w0BAQEFAAOC
AQ8AMIIBCgKCAQEAyQPbzw1kSSh1rDNEzcKD+O1AZp9E21K82V+tTjI3Qni74SGc
FbLeaxMBt22m+hkqoMAYMI99d/y0I4i39n9rB0F88DKfzoQrWFpQzgcmUqHh8N9E
8TCFvxS1n9mXty54H2we++8zlKbesICAhxrIoXgpLz/LtRMO1iwXUt6I68rgX66S
uNbTcLsIOCxss7Qt5RnGRdiIDYJKr6ER958z0tQsGdbeEi9bJL4HVzDu0wv3Xmgl
iMKwHk4IvSuzgC9I7UE5PR3HvD0cIqVAk5w61ovaA4xmh44ZbwrydxyFx6/G3EWQ
9FdVZszP6sXxpnVP5tq6uOgb4vvbpYAoHJi70QIDAQABo1AwTjAdBgNVHQ4EFgQU
IVukNU5tNVYz77PHn6CzPS6AjXkwHwYDVR0jBBgwFoAUIVukNU5tNVYz77PHn6Cz
PS6AjXkwDAYDVR0TBAUwAwEB/zANBgkqhkiG9w0BAQsFAAOCAQEAm0NrUO2z0YsK
Uw9a+DPRYxqIpFedqAMbYgXxwdZDwaPnzhw8mO7qLJBJ9UJMApRIQiymb871e2QJ
iMFTROhbBNDvYisLmNeGYgTUYxJhbON+P+fwabUn2p6E2Qmo6DT5KdPPWmLUYK3B
P3XSIFbSWgmEmcPwnUKxOMW7t0hBfbI2EkvXFOQMMf+gJNjoT/cwemlVR+ayRocv
rxHeI1+yVDpRFcEnsYYgUSJYWNAS9rkTqyq7YoeM27srDQJ0CWw+dBzy0iFhuQ86
Lp7zi+jKJdqwoBaUUyTTt9QpJ660nsuhK5nLn1JuQjj1hAaJaItGKY+3xoD2L1lS
P2UOn5XQRQ==
-----END CERTIFICATE-----
